target datalayout = "e-m:e-p270:32:32-p271:32:32-p272:64:64-i64:64-i128:128-f80:128-n8:16:32:64-S128"
target triple = "x86_64-pc-linux-gnu"

%struct.SDL_Mouse = type { ptr, ptr, ptr, ptr, ptr, ptr, ptr, ptr, ptr, ptr, ptr, ptr, ptr, ptr, i8, float, float, ptr, float, float, float, float, float, float, float, float, double, double, i8, i8, i8, i8, i8, i8, i8, i8, i64, i8, float, i8, float, i8, i32, i32, i8, i8, i8, i8, i8, i8, i8, i8, i8, ptr, i32, ptr, ptr, ptr, ptr, i8, ptr }
%struct.SDL_MouseInputSource = type { i32, i32, i32, ptr }

@SDL_mouse = internal global %struct.SDL_Mouse zeroinitializer, align 8

; Function Attrs: nounwind uwtable
define internal i32 @SDL_GetMouseButtonState(ptr noundef %0, i32 noundef %1, i1 noundef zeroext %2) #0 {
  %4 = alloca ptr, align 8
  %5 = alloca i32, align 4
  %6 = alloca i8, align 1
  %7 = alloca i32, align 4
  %8 = alloca i32, align 4
  store ptr %0, ptr %4, align 8
  store i32 %1, ptr %5, align 4
  %9 = zext i1 %2 to i8
  store i8 %9, ptr %6, align 1
  call void @llvm.lifetime.start.p0(i64 4, ptr %7) #7
  call void @llvm.lifetime.start.p0(i64 4, ptr %8) #7
  store i32 0, ptr %8, align 4
  store i32 0, ptr %7, align 4
  br label %10

10:                                               ; preds = %71, %3
  %11 = load i32, ptr %7, align 4
  %12 = load ptr, ptr %4, align 8
  %13 = getelementptr inbounds nuw %struct.SDL_Mouse, ptr %12, i32 0, i32 54
  %14 = load i32, ptr %13, align 8
  %15 = icmp slt i32 %11, %14
  br i1 %15, label %16, label %74

16:                                               ; preds = %10
  %17 = load i32, ptr %5, align 4
  %18 = icmp eq i32 %17, 0
  br i1 %18, label %22, label %19

19:                                               ; preds = %16
  %20 = load i32, ptr %5, align 4
  %21 = icmp eq i32 %20, -1
  br i1 %21, label %22, label %47

22:                                               ; preds = %19, %16
  %23 = load i8, ptr %6, align 1, !range !3, !noundef !4
  %24 = trunc i8 %23 to i1
  br i1 %24, label %35, label %25

25:                                               ; preds = %22
  %26 = load ptr, ptr %4, align 8
  %27 = getelementptr inbounds nuw %struct.SDL_Mouse, ptr %26, i32 0, i32 55
  %28 = load ptr, ptr %27, align 8
  %29 = load i32, ptr %7, align 4
  %30 = sext i32 %29 to i64
  %31 = getelementptr inbounds %struct.SDL_MouseInputSource, ptr %28, i64 %30
  %32 = getelementptr inbounds nuw %struct.SDL_MouseInputSource, ptr %31, i32 0, i32 0
  %33 = load i32, ptr %32, align 8
  %34 = icmp ne i32 %33, -1
  br i1 %34, label %35, label %46

35:                                               ; preds = %25, %22
  %36 = load ptr, ptr %4, align 8
  %37 = getelementptr inbounds nuw %struct.SDL_Mouse, ptr %36, i32 0, i32 55
  %38 = load ptr, ptr %37, align 8
  %39 = load i32, ptr %7, align 4
  %40 = sext i32 %39 to i64
  %41 = getelementptr inbounds %struct.SDL_MouseInputSource, ptr %38, i64 %40
  %42 = getelementptr inbounds nuw %struct.SDL_MouseInputSource, ptr %41, i32 0, i32 1
  %43 = load i32, ptr %42, align 4
  %44 = load i32, ptr %8, align 4
  %45 = or i32 %44, %43
  store i32 %45, ptr %8, align 4
  br label %46

46:                                               ; preds = %35, %25
  br label %70

47:                                               ; preds = %19
  %48 = load i32, ptr %5, align 4
  %49 = load ptr, ptr %4, align 8
  %50 = getelementptr inbounds nuw %struct.SDL_Mouse, ptr %49, i32 0, i32 55
  %51 = load ptr, ptr %50, align 8
  %52 = load i32, ptr %7, align 4
  %53 = sext i32 %52 to i64
  %54 = getelementptr inbounds %struct.SDL_MouseInputSource, ptr %51, i64 %53
  %55 = getelementptr inbounds nuw %struct.SDL_MouseInputSource, ptr %54, i32 0, i32 0
  %56 = load i32, ptr %55, align 8
  %57 = icmp eq i32 %48, %56
  br i1 %57, label %58, label %69

58:                                               ; preds = %47
  %59 = load ptr, ptr %4, align 8
  %60 = getelementptr inbounds nuw %struct.SDL_Mouse, ptr %59, i32 0, i32 55
  %61 = load ptr, ptr %60, align 8
  %62 = load i32, ptr %7, align 4
  %63 = sext i32 %62 to i64
  %64 = getelementptr inbounds %struct.SDL_MouseInputSource, ptr %61, i64 %63
  %65 = getelementptr inbounds nuw %struct.SDL_MouseInputSource, ptr %64, i32 0, i32 1
  %66 = load i32, ptr %65, align 4
  %67 = load i32, ptr %8, align 4
  %68 = or i32 %67, %66
  store i32 %68, ptr %8, align 4
  br label %74

69:                                               ; preds = %47
  br label %70

70:                                               ; preds = %69, %46
  br label %71

71:                                               ; preds = %70
  %72 = load i32, ptr %7, align 4
  %73 = add nsw i32 %72, 1
  store i32 %73, ptr %7, align 4
  br label %10, !llvm.loop !11

74:                                               ; preds = %58, %10
  %75 = load i32, ptr %8, align 4
  call void @llvm.lifetime.end.p0(i64 4, ptr %8) #7
  call void @llvm.lifetime.end.p0(i64 4, ptr %7) #7
  ret i32 %75
}

; Function Attrs: nounwind uwtable
define hidden ptr @SDL_GetMouse() #0 {
  ret ptr @SDL_mouse
}

; Function Attrs: nounwind uwtable
define hidden void @SDL_SendMouseMotion(i64 noundef %0, ptr noundef %1, i32 noundef %2, i1 noundef zeroext %3, float noundef %4, float noundef %5) #0 {
  %7 = alloca i64, align 8
  %8 = alloca ptr, align 8
  %9 = alloca i32, align 4
  %10 = alloca i8, align 1
  %11 = alloca float, align 4
  %12 = alloca float, align 4
  %13 = alloca ptr, align 8
  %14 = alloca i32, align 4
  store i64 %0, ptr %7, align 8
  store ptr %1, ptr %8, align 8
  store i32 %2, ptr %9, align 4
  %15 = zext i1 %3 to i8
  store i8 %15, ptr %10, align 1
  store float %4, ptr %11, align 4
  store float %5, ptr %12, align 4
  %16 = load ptr, ptr %8, align 8
  %17 = icmp ne ptr %16, null
  br i1 %17, label %18, label %42

18:                                               ; preds = %6
  %19 = load i8, ptr %10, align 1, !range !3, !noundef !4
  %20 = trunc i8 %19 to i1
  br i1 %20, label %42, label %21

21:                                               ; preds = %18
  call void @llvm.lifetime.start.p0(i64 8, ptr %13) #7
  %22 = call ptr @SDL_GetMouse()
  store ptr %22, ptr %13, align 8
  %23 = load ptr, ptr %8, align 8
  %24 = load float, ptr %11, align 4
  %25 = load float, ptr %12, align 4
  %26 = load ptr, ptr %13, align 8
  %27 = load i32, ptr %9, align 4
  %28 = call i32 @SDL_GetMouseButtonState(ptr noundef %26, i32 noundef %27, i1 noundef zeroext true)
  %29 = load i32, ptr %9, align 4
  %30 = icmp ne i32 %29, -1
  br i1 %30, label %31, label %34

31:                                               ; preds = %21
  %32 = load i32, ptr %9, align 4
  %33 = icmp ne i32 %32, -2
  br label %34

34:                                               ; preds = %31, %21
  %35 = phi i1 [ false, %21 ], [ %33, %31 ]
  %36 = call zeroext i1 @SDL_UpdateMouseFocus(ptr noundef %23, float noundef %24, float noundef %25, i32 noundef %28, i1 noundef zeroext %35)
  br i1 %36, label %38, label %37

37:                                               ; preds = %34
  store i32 1, ptr %14, align 4
  br label %39

38:                                               ; preds = %34
  store i32 0, ptr %14, align 4
  br label %39

39:                                               ; preds = %38, %37
  call void @llvm.lifetime.end.p0(i64 8, ptr %13) #7
  %40 = load i32, ptr %14, align 4
  switch i32 %40, label %51 [
    i32 0, label %41
    i32 1, label %50
  ]

41:                                               ; preds = %39
  br label %42

42:                                               ; preds = %41, %18, %6
  %43 = load i64, ptr %7, align 8
  %44 = load ptr, ptr %8, align 8
  %45 = load i32, ptr %9, align 4
  %46 = load i8, ptr %10, align 1, !range !3, !noundef !4
  %47 = trunc i8 %46 to i1
  %48 = load float, ptr %11, align 4
  %49 = load float, ptr %12, align 4
  call void @SDL_PrivateSendMouseMotion(i64 noundef %43, ptr noundef %44, i32 noundef %45, i1 noundef zeroext %47, float noundef %48, float noundef %49)
  br label %50

50:                                               ; preds = %42, %39
  ret void

51:                                               ; preds = %39
  unreachable
}