; Function Attrs: nounwind uwtable
define hidden void @SDL_SendMouseMotion(i64 noundef %0, ptr noundef %1, i32 noundef %2, i1 noundef zeroext %3, float noundef %4, float noundef %5) local_unnamed_addr #0 {
  %7 = icmp eq ptr %1, null
  %or.cond = or i1 %7, %3
  br i1 %or.cond, label %18, label %8

8:                                                ; preds = %6
  %9 = load i32, ptr getelementptr inbounds nuw (i8, ptr @SDL_mouse, i64 248), align 8
  %10 = icmp sgt i32 %9, 0
  br i1 %10, label %.lr.ph.i, label %SDL_GetMouseButtonState.exit

.lr.ph.i:                                         ; preds = %8
  %11 = add i32 %2, 1
  %or.cond.i = icmp ult i32 %11, 2
  %12 = load ptr, ptr getelementptr inbounds nuw (i8, ptr @SDL_mouse, i64 256), align 8
  %wide.trip.count18.i = zext nneg i32 %9 to i64
  br i1 %or.cond.i, label %.lr.ph.split.us.split.us.i, label %.lr.ph.split.i

.lr.ph.split.us.split.us.i:                       ; preds = %.lr.ph.i, %.lr.ph.split.us.split.us.i
  %indvars.iv15.i = phi i64 [ %indvars.iv.next16.i, %.lr.ph.split.us.split.us.i ], [ 0, %.lr.ph.i ]
  %indvars.iv.next16.i = add nuw nsw i64 %indvars.iv15.i, 1
  %exitcond19.not.i = icmp eq i64 %indvars.iv.next16.i, %wide.trip.count18.i
  br i1 %exitcond19.not.i, label %SDL_GetMouseButtonState.exit, label %.lr.ph.split.us.split.us.i, !llvm.loop !11

.lr.ph.split.i:                                   ; preds = %.lr.ph.i, %.lr.ph.split.i
  %indvars.iv.i = phi i64 [ %indvars.iv.next.i, %.lr.ph.split.i ], [ 0, %.lr.ph.i ]
  %13 = getelementptr inbounds nuw %struct.SDL_MouseInputSource, ptr %12, i64 %indvars.iv.i
  %14 = load i32, ptr %13, align 8
  %15 = icmp eq i32 %2, %14
  %indvars.iv.next.i = add nuw nsw i64 %indvars.iv.i, 1
  %exitcond.not.i = icmp eq i64 %indvars.iv.next.i, %wide.trip.count18.i
  %or.cond29 = select i1 %15, i1 true, i1 %exitcond.not.i
  br i1 %or.cond29, label %SDL_GetMouseButtonState.exit, label %.lr.ph.split.i, !llvm.loop !11

SDL_GetMouseButtonState.exit:                     ; preds = %.lr.ph.split.i, %.lr.ph.split.us.split.us.i, %8
  %16 = icmp ult i32 %2, -2
  %17 = tail call fastcc zeroext i1 @SDL_UpdateMouseFocus(ptr noundef %1, float noundef %4, float noundef %5, i1 noundef zeroext %16)
  br i1 %17, label %18, label %19

18:                                               ; preds = %SDL_GetMouseButtonState.exit, %6
  tail call fastcc void @SDL_PrivateSendMouseMotion(i64 noundef %0, ptr noundef %1, i32 noundef %2, i1 noundef zeroext %3, float noundef %4, float noundef %5)
  br label %19

19:                                               ; preds = %SDL_GetMouseButtonState.exit, %18
  ret void
}